(lp1
(dp2
S'Temp-centro'
p3
S'160'
p4
sS'raio'
p5
S'5'
sS'Temp-crosta'
p6
S'180'
p7
sS'altura'
p8
S'2'
sS'nome'
p9
S'coockie'
p10
sa(dp11
S'nome'
p12
S'bolacha'
p13
sS'H'
S'0.01'
p14
sS'k'
S'0.1'
p15
sS'h_convec'
p16
S'5.0'
p17
sS'epsilon'
p18
S'0.7'
p19
sS'R'
S'0.05'
p20
sS'Temp-crosta'
p21
S'200'
p22
sS'rho'
p23
S'400'
p24
sS'Temp-centro'
p25
S'180'
p26
sS'Cp'
p27
S'3000'
p28
sa(dp29
S'qual'
p30
S'bolacha'
p31
sS'nome'
p32
S'escolha'
p33
sa.