(lp1
(dp2
S'nome'
p3
S'bolacha'
p4
sS'H'
S'0.01'
p5
sS'k'
S'0.1'
p6
sS'h_convec'
p7
S'5.0'
p8
sS'epsilon'
p9
S'0.7'
p10
sS'R'
S'0.05'
p11
sS'Temp-crosta'
p12
S'200'
p13
sS'rho'
p14
S'400'
p15
sS'Temp-centro'
p16
S'180'
p17
sS'Cp'
p18
S'3000'
p19
sa(dp20
S'nome'
p21
S'cookie'
p22
sS'H'
S'0.01'
p23
sS'k'
S'0.1'
p24
sS'h_convec'
p25
S'8.0'
p26
sS'epsilon'
p27
S'0.9'
p28
sS'R'
S'0.06'
p29
sS'Temp-crosta'
p30
S'200'
p31
sS'rho'
p32
S'400'
p33
sS'Temp-centro'
p34
S'190'
p35
sS'Cp'
p36
S'3000'
p37
sa(dp38
S'qual'
p39
S'cookie'
p40
sS'nome'
p41
S'escolha'
p42
sa.